target datalayout = "e-m:e-p270:32:32-p271:32:32-p272:64:64-i64:64-i128:128-f80:128-n8:16:32:64-S128"
target triple = "x86_64-unknown-linux-gnu"

%struct.BlockDriverState = type { i32, i8, i8, i8, i8, i8, ptr, ptr, ptr, %struct.anon, i8, [4096 x i8], [4096 x i8], [4096 x i8], [16 x i8], ptr, [4096 x i8], %struct.BlockLimits, i32, i32, i32, i32, [32 x i8], %union.anon, %union.anon.0, %union.anon.1, i32, [16 x %struct.anon.2], ptr, %struct.anon.3, ptr, ptr, %struct.anon.4, ptr, ptr, i32, ptr, i64, i64, %struct.QemuMutex, %struct.anon.5, %struct.Stat64, i32, i32, i32, i32, i32, i32, %struct.QemuMutex, %struct.anon.6, %struct.CoQueue, i8, i32, i8, %struct.CoMutex, ptr, ptr }
%struct.anon = type { ptr }
%struct.BlockLimits = type { i32, i64, i32, i64, i32, i32, i32, i64, i32, i64, i64, i32, i8, i32, i32, i32, i32, i32, i32, i32 }
%union.anon = type { %struct.QTailQLink }
%struct.QTailQLink = type { ptr, ptr }
%union.anon.0 = type { %struct.QTailQLink }
%union.anon.1 = type { %struct.QTailQLink }
%struct.anon.2 = type { ptr }
%struct.anon.3 = type { ptr }
%struct.anon.4 = type { ptr }
%struct.anon.5 = type { ptr }
%struct.Stat64 = type { i64 }
%struct.QemuMutex = type { %union.pthread_mutex_t, i8 }
%union.pthread_mutex_t = type { %struct.__pthread_mutex_s }
%struct.__pthread_mutex_s = type { i32, i32, i32, i32, i32, i16, i16, %struct.__pthread_internal_list }
%struct.__pthread_internal_list = type { ptr, ptr }
%struct.anon.6 = type { ptr }
%struct.CoQueue = type { %struct.anon.7 }
%struct.anon.7 = type { ptr, ptr }
%struct.CoMutex = type { i32, ptr, %struct.anon.8, %struct.anon.8, i32, i32, ptr }
%struct.anon.8 = type { ptr }

; Function Attrs: nounwind sspstrong uwtable
define internal void @cor_child_perm(ptr noundef %bs, ptr noundef %c, i32 noundef %role, ptr noundef %reopen_queue, i64 noundef %perm, i64 noundef %shared, ptr noundef %nperm, ptr noundef %nshared) #0 {
entry:
  %bs.addr = alloca ptr, align 8
  %c.addr = alloca ptr, align 8
  %role.addr = alloca i32, align 4
  %reopen_queue.addr = alloca ptr, align 8
  %perm.addr = alloca i64, align 8
  %shared.addr = alloca i64, align 8
  %nperm.addr = alloca ptr, align 8
  %nshared.addr = alloca ptr, align 8
  store ptr %bs, ptr %bs.addr, align 8
  store ptr %c, ptr %c.addr, align 8
  store i32 %role, ptr %role.addr, align 4
  store ptr %reopen_queue, ptr %reopen_queue.addr, align 8
  store i64 %perm, ptr %perm.addr, align 8
  store i64 %shared, ptr %shared.addr, align 8
  store ptr %nperm, ptr %nperm.addr, align 8
  store ptr %nshared, ptr %nshared.addr, align 8
  %0 = load i64, ptr %perm.addr, align 8
  %and = and i64 %0, 11
  %1 = load ptr, ptr %nperm.addr, align 8
  store i64 %and, ptr %1, align 8
  %2 = load i64, ptr %shared.addr, align 8
  %and1 = and i64 %2, 11
  %or = or i64 %and1, 4
  %3 = load ptr, ptr %nshared.addr, align 8
  store i64 %or, ptr %3, align 8
  %4 = load ptr, ptr %bs.addr, align 8
  %open_flags = getelementptr inbounds %struct.BlockDriverState, ptr %4, i32 0, i32 0
  %5 = load i32, ptr %open_flags, align 8
  %and2 = and i32 %5, 2048
  %tobool = icmp ne i32 %and2, 0
  br i1 %tobool, label %if.end, label %if.then

if.then:                                          ; preds = %entry
  %6 = load ptr, ptr %nperm.addr, align 8
  %7 = load i64, ptr %6, align 8
  %or3 = or i64 %7, 4
  store i64 %or3, ptr %6, align 8
  br label %if.end

if.end:                                           ; preds = %if.then, %entry
  ret void
}