; Function Attrs: mustprogress nofree norecurse nosync nounwind sspstrong willreturn memory(argmem: readwrite) uwtable
define internal void @cor_child_perm(ptr noundef readonly captures(none) %bs, ptr readnone captures(none) %c, i32 %role, ptr readnone captures(none) %reopen_queue, i64 noundef %perm, i64 noundef %shared, ptr noundef captures(none) initializes((0, 8)) %nperm, ptr noundef writeonly captures(none) initializes((0, 8)) %nshared) #3 {
entry:
  %and = and i64 %perm, 11
  store i64 %and, ptr %nperm, align 8
  %and1 = and i64 %shared, 11
  %or = or disjoint i64 %and1, 4
  store i64 %or, ptr %nshared, align 8
  %0 = load i32, ptr %bs, align 8
  %and2 = and i32 %0, 2048
  %tobool.not = icmp eq i32 %and2, 0
  br i1 %tobool.not, label %if.then, label %if.end

if.then:                                          ; preds = %entry
  %1 = load i64, ptr %nperm, align 8
  %or3 = or i64 %1, 4
  store i64 %or3, ptr %nperm, align 8
  br label %if.end

if.end:                                           ; preds = %if.then, %entry
  ret void
}